; ModuleID = '43/1420.c'
source_filename = "43/1420.c"
target datalayout = "e-m:e-p270:32:32-p271:32:32-p272:64:64-i64:64-f80:128-n8:16:32:64-S128"
target triple = "x86_64-pc-linux-gnu"

@.str = private unnamed_addr constant [4 x i8] c"%d\0A\00", align 1
@.str.1 = private unnamed_addr constant [7 x i8] c"%d %d\0A\00", align 1

; Function Attrs: noinline nounwind uwtable
define dso_local i32 @main() #0 {
  %1 = alloca i32, align 4
  %2 = alloca i32, align 4
  %3 = alloca i32, align 4
  %4 = alloca i32, align 4
  %5 = alloca i32, align 4
  %6 = alloca i32, align 4
  %7 = alloca i32, align 4
  %8 = alloca i32, align 4
  %9 = alloca i32, align 4
  %10 = alloca i32, align 4
  %11 = alloca float, align 4
  %12 = alloca float, align 4
  %13 = alloca float, align 4
  store i32 0, i32* %1, align 4
  store i32 3, i32* %4, align 4
  %14 = call i32 (i8*, ...) @__isoc99_scanf(i8* getelementptr inbounds ([4 x i8], [4 x i8]* @.str, i64 0, i64 0), i32* %2)
  %15 = load i32, i32* %2, align 4
  %16 = sdiv i32 %15, 2
  store i32 %16, i32* %3, align 4
  br label %17

17:                                               ; preds = %74, %0
  %18 = load i32, i32* %4, align 4
  %19 = load i32, i32* %3, align 4
  %20 = icmp sle i32 %18, %19
  br i1 %20, label %21, label %77

21:                                               ; preds = %17
  %22 = load i32, i32* %2, align 4
  %23 = load i32, i32* %4, align 4
  %24 = sub nsw i32 %22, %23
  store i32 %24, i32* %5, align 4
  %25 = load i32, i32* %4, align 4
  %26 = sitofp i32 %25 to double
  %27 = call double @sqrt(double %26) #3
  %28 = fptrunc double %27 to float
  store float %28, float* %12, align 4
  %29 = load i32, i32* %5, align 4
  %30 = sitofp i32 %29 to double
  %31 = call double @sqrt(double %30) #3
  %32 = fptrunc double %31 to float
  store float %32, float* %13, align 4
  store i32 2, i32* %6, align 4
  store i32 2, i32* %8, align 4
  store i32 1, i32* %7, align 4
  store i32 1, i32* %10, align 4
  br label %33

33:                                               ; preds = %47, %21
  %34 = load i32, i32* %6, align 4
  %35 = sitofp i32 %34 to float
  %36 = load float, float* %12, align 4
  %37 = fcmp ole float %35, %36
  br i1 %37, label %38, label %48

38:                                               ; preds = %33
  %39 = load i32, i32* %4, align 4
  %40 = load i32, i32* %6, align 4
  %41 = srem i32 %39, %40
  %42 = icmp eq i32 %41, 0
  br i1 %42, label %43, label %44

43:                                               ; preds = %38
  store i32 0, i32* %7, align 4
  br label %48

44:                                               ; preds = %38
  %45 = load i32, i32* %6, align 4
  %46 = add nsw i32 %45, 1
  store i32 %46, i32* %6, align 4
  br label %47

47:                                               ; preds = %44
  br label %33

48:                                               ; preds = %43, %33
  br label %49

49:                                               ; preds = %63, %48
  %50 = load i32, i32* %8, align 4
  %51 = sitofp i32 %50 to float
  %52 = load float, float* %13, align 4
  %53 = fcmp ole float %51, %52
  br i1 %53, label %54, label %64

54:                                               ; preds = %49
  %55 = load i32, i32* %5, align 4
  %56 = load i32, i32* %8, align 4
  %57 = srem i32 %55, %56
  %58 = icmp eq i32 %57, 0
  br i1 %58, label %59, label %60

59:                                               ; preds = %54
  store i32 0, i32* %10, align 4
  br label %64

60:                                               ; preds = %54
  %61 = load i32, i32* %8, align 4
  %62 = add nsw i32 %61, 1
  store i32 %62, i32* %8, align 4
  br label %63

63:                                               ; preds = %60
  br label %49

64:                                               ; preds = %59, %49
  %65 = load i32, i32* %7, align 4
  %66 = icmp eq i32 %65, 1
  br i1 %66, label %67, label %74

67:                                               ; preds = %64
  %68 = load i32, i32* %10, align 4
  %69 = icmp eq i32 %68, 1
  br i1 %69, label %70, label %74

70:                                               ; preds = %67
  %71 = load i32, i32* %4, align 4
  %72 = load i32, i32* %5, align 4
  %73 = call i32 (i8*, ...) @printf(i8* getelementptr inbounds ([7 x i8], [7 x i8]* @.str.1, i64 0, i64 0), i32 %71, i32 %72)
  br label %74

74:                                               ; preds = %70, %67, %64
  %75 = load i32, i32* %4, align 4
  %76 = add nsw i32 %75, 2
  store i32 %76, i32* %4, align 4
  br label %17

77:                                               ; preds = %17
  %78 = load i32, i32* %1, align 4
  ret i32 %78
}

declare dso_local i32 @__isoc99_scanf(i8*, ...) #1

; Function Attrs: nounwind
declare dso_local double @sqrt(double) #2

declare dso_local i32 @printf(i8*, ...) #1


!llvm.module.flags = !{!0}
!llvm.ident = !{!1}

!0 = !{i32 1, !"wchar_size", i32 4}
!1 = !{!"clang version 10.0.0-4ubuntu1 "}
